; ModuleID = '49/1104.c'
source_filename = "49/1104.c"
target datalayout = "e-m:e-p270:32:32-p271:32:32-p272:64:64-i64:64-f80:128-n8:16:32:64-S128"
target triple = "x86_64-pc-linux-gnu"

@.str = private unnamed_addr constant [3 x i8] c"%c\00", align 1
@.str.1 = private unnamed_addr constant [2 x i8] c"\0A\00", align 1

; Function Attrs: noinline nounwind uwtable
define dso_local i32 @main() #0 {
  %1 = alloca i32, align 4
  %2 = alloca [500 x i8], align 16
  %3 = alloca i32, align 4
  %4 = alloca i32, align 4
  %5 = alloca i32, align 4
  %6 = alloca i32, align 4
  %7 = alloca i32, align 4
  %8 = alloca i32, align 4
  %9 = alloca i32, align 4
  %10 = alloca i32, align 4
  store i32 0, i32* %1, align 4
  store i32 0, i32* %5, align 4
  store i32 0, i32* %3, align 4
  br label %11

11:                                               ; preds = %29, %0
  %12 = load i32, i32* %3, align 4
  %13 = icmp slt i32 %12, 500
  br i1 %13, label %14, label %32

14:                                               ; preds = %11
  %15 = load i32, i32* %3, align 4
  %16 = sext i32 %15 to i64
  %17 = getelementptr inbounds [500 x i8], [500 x i8]* %2, i64 0, i64 %16
  %18 = call i32 (i8*, ...) @__isoc99_scanf(i8* getelementptr inbounds ([3 x i8], [3 x i8]* @.str, i64 0, i64 0), i8* %17)
  %19 = load i32, i32* %5, align 4
  %20 = add nsw i32 %19, 1
  store i32 %20, i32* %5, align 4
  %21 = load i32, i32* %3, align 4
  %22 = sext i32 %21 to i64
  %23 = getelementptr inbounds [500 x i8], [500 x i8]* %2, i64 0, i64 %22
  %24 = load i8, i8* %23, align 1
  %25 = sext i8 %24 to i32
  %26 = icmp eq i32 %25, 10
  br i1 %26, label %27, label %28

27:                                               ; preds = %14
  br label %32

28:                                               ; preds = %14
  br label %29

29:                                               ; preds = %28
  %30 = load i32, i32* %3, align 4
  %31 = add nsw i32 %30, 1
  store i32 %31, i32* %3, align 4
  br label %11

32:                                               ; preds = %27, %11
  %33 = load i32, i32* %5, align 4
  %34 = sub nsw i32 %33, 1
  store i32 %34, i32* %5, align 4
  store i32 1, i32* %4, align 4
  br label %35

35:                                               ; preds = %111, %32
  %36 = load i32, i32* %4, align 4
  %37 = load i32, i32* %5, align 4
  %38 = sub nsw i32 %37, 1
  %39 = icmp sle i32 %36, %38
  br i1 %39, label %40, label %114

40:                                               ; preds = %35
  store i32 0, i32* %6, align 4
  br label %41

41:                                               ; preds = %107, %40
  %42 = load i32, i32* %6, align 4
  %43 = load i32, i32* %5, align 4
  %44 = icmp slt i32 %42, %43
  br i1 %44, label %45, label %110

45:                                               ; preds = %41
  store i32 0, i32* %9, align 4
  %46 = load i32, i32* %5, align 4
  store i32 %46, i32* %7, align 4
  %47 = load i32, i32* %4, align 4
  store i32 %47, i32* %8, align 4
  %48 = load i32, i32* %6, align 4
  store i32 %48, i32* %3, align 4
  br label %49

49:                                               ; preds = %77, %45
  %50 = load i32, i32* %3, align 4
  %51 = load i32, i32* %6, align 4
  %52 = load i32, i32* %4, align 4
  %53 = sdiv i32 %52, 2
  %54 = add nsw i32 %51, %53
  %55 = icmp sle i32 %50, %54
  br i1 %55, label %56, label %80

56:                                               ; preds = %49
  %57 = load i32, i32* %3, align 4
  %58 = sext i32 %57 to i64
  %59 = getelementptr inbounds [500 x i8], [500 x i8]* %2, i64 0, i64 %58
  %60 = load i8, i8* %59, align 1
  %61 = sext i8 %60 to i32
  %62 = load i32, i32* %3, align 4
  %63 = load i32, i32* %8, align 4
  %64 = add nsw i32 %62, %63
  %65 = sext i32 %64 to i64
  %66 = getelementptr inbounds [500 x i8], [500 x i8]* %2, i64 0, i64 %65
  %67 = load i8, i8* %66, align 1
  %68 = sext i8 %67 to i32
  %69 = icmp eq i32 %61, %68
  br i1 %69, label %70, label %75

70:                                               ; preds = %56
  %71 = load i32, i32* %8, align 4
  %72 = sub nsw i32 %71, 2
  store i32 %72, i32* %8, align 4
  %73 = load i32, i32* %9, align 4
  %74 = add nsw i32 %73, 1
  store i32 %74, i32* %9, align 4
  br label %76

75:                                               ; preds = %56
  br label %80

76:                                               ; preds = %70
  br label %77

77:                                               ; preds = %76
  %78 = load i32, i32* %3, align 4
  %79 = add nsw i32 %78, 1
  store i32 %79, i32* %3, align 4
  br label %49

80:                                               ; preds = %75, %49
  %81 = load i32, i32* %9, align 4
  %82 = load i32, i32* %4, align 4
  %83 = add nsw i32 %82, 1
  %84 = sdiv i32 %83, 2
  %85 = icmp eq i32 %81, %84
  br i1 %85, label %86, label %106

86:                                               ; preds = %80
  %87 = load i32, i32* %6, align 4
  store i32 %87, i32* %10, align 4
  br label %88

88:                                               ; preds = %101, %86
  %89 = load i32, i32* %10, align 4
  %90 = load i32, i32* %6, align 4
  %91 = load i32, i32* %4, align 4
  %92 = add nsw i32 %90, %91
  %93 = icmp sle i32 %89, %92
  br i1 %93, label %94, label %104

94:                                               ; preds = %88
  %95 = load i32, i32* %10, align 4
  %96 = sext i32 %95 to i64
  %97 = getelementptr inbounds [500 x i8], [500 x i8]* %2, i64 0, i64 %96
  %98 = load i8, i8* %97, align 1
  %99 = sext i8 %98 to i32
  %100 = call i32 (i8*, ...) @printf(i8* getelementptr inbounds ([3 x i8], [3 x i8]* @.str, i64 0, i64 0), i32 %99)
  br label %101

101:                                              ; preds = %94
  %102 = load i32, i32* %10, align 4
  %103 = add nsw i32 %102, 1
  store i32 %103, i32* %10, align 4
  br label %88

104:                                              ; preds = %88
  %105 = call i32 (i8*, ...) @printf(i8* getelementptr inbounds ([2 x i8], [2 x i8]* @.str.1, i64 0, i64 0))
  br label %106

106:                                              ; preds = %104, %80
  br label %107

107:                                              ; preds = %106
  %108 = load i32, i32* %6, align 4
  %109 = add nsw i32 %108, 1
  store i32 %109, i32* %6, align 4
  br label %41

110:                                              ; preds = %41
  br label %111

111:                                              ; preds = %110
  %112 = load i32, i32* %4, align 4
  %113 = add nsw i32 %112, 1
  store i32 %113, i32* %4, align 4
  br label %35

114:                                              ; preds = %35
  ret i32 0
}

declare dso_local i32 @__isoc99_scanf(i8*, ...) #1

declare dso_local i32 @printf(i8*, ...) #1


!llvm.module.flags = !{!0}
!llvm.ident = !{!1}

!0 = !{i32 1, !"wchar_size", i32 4}
!1 = !{!"clang version 10.0.0-4ubuntu1 "}
